target datalayout = "e-m:e-p270:32:32-p271:32:32-p272:64:64-i64:64-i128:128-f80:128-n8:16:32:64-S128"
target triple = "x86_64-pc-linux-gnu"

%struct.LUTState = type { i16, i16, i16, i16, i16, i8, i8, i8, i8, i16 }

; Function Attrs: nounwind uwtable
define i32 @ff_dirac_golomb_read_32bit(ptr noundef %0, i32 noundef %1, ptr noundef %2, i32 noundef %3) #0 {
  %5 = alloca i32, align 4
  %6 = alloca ptr, align 8
  %7 = alloca i32, align 4
  %8 = alloca ptr, align 8
  %9 = alloca i32, align 4
  %10 = alloca %struct.LUTState, align 2
  %11 = alloca ptr, align 8
  %12 = alloca ptr, align 8
  %13 = alloca i32, align 4
  %14 = alloca i32, align 4
  %15 = alloca i32, align 4
  store ptr %0, ptr %6, align 8, !tbaa !4
  store i32 %1, ptr %7, align 4, !tbaa !9
  store ptr %2, ptr %8, align 8, !tbaa !4
  store i32 %3, ptr %9, align 4, !tbaa !9
  call void @llvm.lifetime.start.p0(i64 16, ptr %10) #3
  %16 = load ptr, ptr %6, align 8, !tbaa !4
  %17 = getelementptr inbounds nuw i8, ptr %16, i32 1
  store ptr %17, ptr %6, align 8, !tbaa !4
  %18 = load i8, ptr %16, align 1, !tbaa !11
  %19 = zext i8 %18 to i64
  %20 = getelementptr inbounds nuw [1024 x %struct.LUTState], ptr @dirac_golomb_lut, i64 0, i64 %19
  call void @llvm.memcpy.p0.p0.i64(ptr align 2 %10, ptr align 16 %20, i64 16, i1 false), !tbaa.struct !12
  call void @llvm.lifetime.start.p0(i64 8, ptr %11) #3
  %21 = load ptr, ptr %8, align 8, !tbaa !4
  store ptr %21, ptr %11, align 8, !tbaa !30
  call void @llvm.lifetime.start.p0(i64 8, ptr %12) #3
  %22 = load ptr, ptr %11, align 8, !tbaa !30
  %23 = load i32, ptr %9, align 4, !tbaa !9
  %24 = sext i32 %23 to i64
  %25 = getelementptr inbounds i32, ptr %22, i64 %24
  store ptr %25, ptr %12, align 8, !tbaa !30
  call void @llvm.lifetime.start.p0(i64 4, ptr %13) #3
  store i32 0, ptr %13, align 4, !tbaa !9
  call void @llvm.lifetime.start.p0(i64 4, ptr %14) #3
  store i32 1, ptr %14, align 4, !tbaa !9
  br label %26

26:                                               ; preds = %109, %4
  %27 = load i32, ptr %14, align 4, !tbaa !9
  %28 = load i32, ptr %7, align 4, !tbaa !9
  %29 = icmp slt i32 %27, %28
  br i1 %29, label %31, label %30

30:                                               ; preds = %26
  store i32 2, ptr %15, align 4
  br label %112

31:                                               ; preds = %26
  br label %32

32:                                               ; preds = %31
  %33 = getelementptr inbounds nuw %struct.LUTState, ptr %10, i32 0, i32 5
  %34 = load i8, ptr %33, align 2, !tbaa !17
  %35 = zext i8 %34 to i32
  %36 = load i32, ptr %13, align 4, !tbaa !9
  %37 = shl i32 %36, %35
  store i32 %37, ptr %13, align 4, !tbaa !9
  %38 = getelementptr inbounds nuw %struct.LUTState, ptr %10, i32 0, i32 0
  %39 = load i16, ptr %38, align 2, !tbaa !19
  %40 = sext i16 %39 to i32
  %41 = load i32, ptr %13, align 4, !tbaa !9
  %42 = or i32 %41, %40
  store i32 %42, ptr %13, align 4, !tbaa !9
  %43 = load i32, ptr %13, align 4, !tbaa !9
  %44 = sub i32 %43, 1
  %45 = getelementptr inbounds nuw %struct.LUTState, ptr %10, i32 0, i32 6
  %46 = load i8, ptr %45, align 1, !tbaa !20
  %47 = sext i8 %46 to i32
  %48 = mul i32 %44, %47
  %49 = load ptr, ptr %11, align 8, !tbaa !30
  %50 = getelementptr inbounds i32, ptr %49, i64 0
  store i32 %48, ptr %50, align 4, !tbaa !9
  %51 = getelementptr inbounds nuw %struct.LUTState, ptr %10, i32 0, i32 1
  %52 = load i16, ptr %51, align 2, !tbaa !21
  %53 = sext i16 %52 to i32
  %54 = load ptr, ptr %11, align 8, !tbaa !30
  %55 = getelementptr inbounds i32, ptr %54, i64 1
  store i32 %53, ptr %55, align 4, !tbaa !9
  %56 = getelementptr inbounds nuw %struct.LUTState, ptr %10, i32 0, i32 2
  %57 = load i16, ptr %56, align 2, !tbaa !22
  %58 = sext i16 %57 to i32
  %59 = load ptr, ptr %11, align 8, !tbaa !30
  %60 = getelementptr inbounds i32, ptr %59, i64 2
  store i32 %58, ptr %60, align 4, !tbaa !9
  %61 = getelementptr inbounds nuw %struct.LUTState, ptr %10, i32 0, i32 3
  %62 = load i16, ptr %61, align 2, !tbaa !23
  %63 = sext i16 %62 to i32
  %64 = load ptr, ptr %11, align 8, !tbaa !30
  %65 = getelementptr inbounds i32, ptr %64, i64 3
  store i32 %63, ptr %65, align 4, !tbaa !9
  %66 = getelementptr inbounds nuw %struct.LUTState, ptr %10, i32 0, i32 4
  %67 = load i16, ptr %66, align 2, !tbaa !24
  %68 = sext i16 %67 to i32
  %69 = load ptr, ptr %11, align 8, !tbaa !30
  %70 = getelementptr inbounds i32, ptr %69, i64 4
  store i32 %68, ptr %70, align 4, !tbaa !9
  %71 = load ptr, ptr %11, align 8, !tbaa !30
  %72 = getelementptr inbounds i32, ptr %71, i64 5
  store i32 0, ptr %72, align 4, !tbaa !9
  %73 = load ptr, ptr %11, align 8, !tbaa !30
  %74 = getelementptr inbounds i32, ptr %73, i64 6
  store i32 0, ptr %74, align 4, !tbaa !9
  %75 = load ptr, ptr %11, align 8, !tbaa !30
  %76 = getelementptr inbounds i32, ptr %75, i64 7
  store i32 0, ptr %76, align 4, !tbaa !9
  %77 = getelementptr inbounds nuw %struct.LUTState, ptr %10, i32 0, i32 7
  %78 = load i8, ptr %77, align 2, !tbaa !25
  %79 = icmp ne i8 %78, 0
  br i1 %79, label %80, label %84

80:                                               ; preds = %32
  %81 = getelementptr inbounds nuw %struct.LUTState, ptr %10, i32 0, i32 8
  %82 = load i8, ptr %81, align 1, !tbaa !26
  %83 = zext i8 %82 to i32
  store i32 %83, ptr %13, align 4, !tbaa !9
  br label %84

84:                                               ; preds = %80, %32
  %85 = getelementptr inbounds nuw %struct.LUTState, ptr %10, i32 0, i32 7
  %86 = load i8, ptr %85, align 2, !tbaa !25
  %87 = sext i8 %86 to i32
  %88 = load ptr, ptr %11, align 8, !tbaa !30
  %89 = sext i32 %87 to i64
  %90 = getelementptr inbounds i32, ptr %88, i64 %89
  store ptr %90, ptr %11, align 8, !tbaa !30
  %91 = load ptr, ptr %11, align 8, !tbaa !30
  %92 = load ptr, ptr %12, align 8, !tbaa !30
  %93 = icmp uge ptr %91, %92
  br i1 %93, label %94, label %96

94:                                               ; preds = %84
  %95 = load i32, ptr %9, align 4, !tbaa !9
  store i32 %95, ptr %5, align 4
  store i32 1, ptr %15, align 4
  br label %112

96:                                               ; preds = %84
  %97 = getelementptr inbounds nuw %struct.LUTState, ptr %10, i32 0, i32 9
  %98 = load i16, ptr %97, align 2, !tbaa !27
  %99 = zext i16 %98 to i32
  %100 = load ptr, ptr %6, align 8, !tbaa !4
  %101 = getelementptr inbounds nuw i8, ptr %100, i32 1
  store ptr %101, ptr %6, align 8, !tbaa !4
  %102 = load i8, ptr %100, align 1, !tbaa !11
  %103 = zext i8 %102 to i32
  %104 = add nsw i32 %99, %103
  %105 = sext i32 %104 to i64
  %106 = getelementptr inbounds [1024 x %struct.LUTState], ptr @dirac_golomb_lut, i64 0, i64 %105
  call void @llvm.memcpy.p0.p0.i64(ptr align 2 %10, ptr align 16 %106, i64 16, i1 false), !tbaa.struct !12
  br label %107

107:                                              ; preds = %96
  br label %108

108:                                              ; preds = %107
  br label %109

109:                                              ; preds = %108
  %110 = load i32, ptr %14, align 4, !tbaa !9
  %111 = add nsw i32 %110, 1
  store i32 %111, ptr %14, align 4, !tbaa !9
  br label %26, !llvm.loop !32

112:                                              ; preds = %94, %30
  call void @llvm.lifetime.end.p0(i64 4, ptr %14) #3
  %113 = load i32, ptr %15, align 4
  switch i32 %113, label %223 [
    i32 2, label %114
  ]

114:                                              ; preds = %112
  br label %115

115:                                              ; preds = %114
  %116 = getelementptr inbounds nuw %struct.LUTState, ptr %10, i32 0, i32 5
  %117 = load i8, ptr %116, align 2, !tbaa !17
  %118 = zext i8 %117 to i32
  %119 = load i32, ptr %13, align 4, !tbaa !9
  %120 = shl i32 %119, %118
  store i32 %120, ptr %13, align 4, !tbaa !9
  %121 = getelementptr inbounds nuw %struct.LUTState, ptr %10, i32 0, i32 0
  %122 = load i16, ptr %121, align 2, !tbaa !19
  %123 = sext i16 %122 to i32
  %124 = load i32, ptr %13, align 4, !tbaa !9
  %125 = or i32 %124, %123
  store i32 %125, ptr %13, align 4, !tbaa !9
  %126 = load i32, ptr %13, align 4, !tbaa !9
  %127 = sub i32 %126, 1
  %128 = getelementptr inbounds nuw %struct.LUTState, ptr %10, i32 0, i32 6
  %129 = load i8, ptr %128, align 1, !tbaa !20
  %130 = sext i8 %129 to i32
  %131 = mul i32 %127, %130
  %132 = load ptr, ptr %11, align 8, !tbaa !30
  %133 = getelementptr inbounds i32, ptr %132, i64 0
  store i32 %131, ptr %133, align 4, !tbaa !9
  %134 = getelementptr inbounds nuw %struct.LUTState, ptr %10, i32 0, i32 1
  %135 = load i16, ptr %134, align 2, !tbaa !21
  %136 = sext i16 %135 to i32
  %137 = load ptr, ptr %11, align 8, !tbaa !30
  %138 = getelementptr inbounds i32, ptr %137, i64 1
  store i32 %136, ptr %138, align 4, !tbaa !9
  %139 = getelementptr inbounds nuw %struct.LUTState, ptr %10, i32 0, i32 2
  %140 = load i16, ptr %139, align 2, !tbaa !22
  %141 = sext i16 %140 to i32
  %142 = load ptr, ptr %11, align 8, !tbaa !30
  %143 = getelementptr inbounds i32, ptr %142, i64 2
  store i32 %141, ptr %143, align 4, !tbaa !9
  %144 = getelementptr inbounds nuw %struct.LUTState, ptr %10, i32 0, i32 3
  %145 = load i16, ptr %144, align 2, !tbaa !23
  %146 = sext i16 %145 to i32
  %147 = load ptr, ptr %11, align 8, !tbaa !30
  %148 = getelementptr inbounds i32, ptr %147, i64 3
  store i32 %146, ptr %148, align 4, !tbaa !9
  %149 = getelementptr inbounds nuw %struct.LUTState, ptr %10, i32 0, i32 4
  %150 = load i16, ptr %149, align 2, !tbaa !24
  %151 = sext i16 %150 to i32
  %152 = load ptr, ptr %11, align 8, !tbaa !30
  %153 = getelementptr inbounds i32, ptr %152, i64 4
  store i32 %151, ptr %153, align 4, !tbaa !9
  %154 = load ptr, ptr %11, align 8, !tbaa !30
  %155 = getelementptr inbounds i32, ptr %154, i64 5
  store i32 0, ptr %155, align 4, !tbaa !9
  %156 = load ptr, ptr %11, align 8, !tbaa !30
  %157 = getelementptr inbounds i32, ptr %156, i64 6
  store i32 0, ptr %157, align 4, !tbaa !9
  %158 = load ptr, ptr %11, align 8, !tbaa !30
  %159 = getelementptr inbounds i32, ptr %158, i64 7
  store i32 0, ptr %159, align 4, !tbaa !9
  %160 = getelementptr inbounds nuw %struct.LUTState, ptr %10, i32 0, i32 7
  %161 = load i8, ptr %160, align 2, !tbaa !25
  %162 = icmp ne i8 %161, 0
  br i1 %162, label %163, label %167

163:                                              ; preds = %115
  %164 = getelementptr inbounds nuw %struct.LUTState, ptr %10, i32 0, i32 8
  %165 = load i8, ptr %164, align 1, !tbaa !26
  %166 = zext i8 %165 to i32
  store i32 %166, ptr %13, align 4, !tbaa !9
  br label %167

167:                                              ; preds = %163, %115
  %168 = getelementptr inbounds nuw %struct.LUTState, ptr %10, i32 0, i32 7
  %169 = load i8, ptr %168, align 2, !tbaa !25
  %170 = sext i8 %169 to i32
  %171 = load ptr, ptr %11, align 8, !tbaa !30
  %172 = sext i32 %170 to i64
  %173 = getelementptr inbounds i32, ptr %171, i64 %172
  store ptr %173, ptr %11, align 8, !tbaa !30
  %174 = load ptr, ptr %11, align 8, !tbaa !30
  %175 = load ptr, ptr %12, align 8, !tbaa !30
  %176 = icmp uge ptr %174, %175
  br i1 %176, label %177, label %179

177:                                              ; preds = %167
  %178 = load i32, ptr %9, align 4, !tbaa !9
  store i32 %178, ptr %5, align 4
  store i32 1, ptr %15, align 4
  br label %223

179:                                              ; preds = %167
  %180 = getelementptr inbounds nuw %struct.LUTState, ptr %10, i32 0, i32 9
  %181 = load i16, ptr %180, align 2, !tbaa !27
  %182 = zext i16 %181 to i32
  %183 = load ptr, ptr %6, align 8, !tbaa !4
  %184 = getelementptr inbounds nuw i8, ptr %183, i32 1
  store ptr %184, ptr %6, align 8, !tbaa !4
  %185 = load i8, ptr %183, align 1, !tbaa !11
  %186 = zext i8 %185 to i32
  %187 = add nsw i32 %182, %186
  %188 = sext i32 %187 to i64
  %189 = getelementptr inbounds [1024 x %struct.LUTState], ptr @dirac_golomb_lut, i64 0, i64 %188
  call void @llvm.memcpy.p0.p0.i64(ptr align 2 %10, ptr align 16 %189, i64 16, i1 false), !tbaa.struct !12
  br label %190

190:                                              ; preds = %179
  br label %191

191:                                              ; preds = %190
  %192 = getelementptr inbounds nuw %struct.LUTState, ptr %10, i32 0, i32 9
  %193 = load i16, ptr %192, align 2, !tbaa !27
  %194 = zext i16 %193 to i32
  %195 = icmp ne i32 %194, 0
  br i1 %195, label %196, label %213

196:                                              ; preds = %191
  %197 = getelementptr inbounds nuw %struct.LUTState, ptr %10, i32 0, i32 9
  %198 = load i16, ptr %197, align 2, !tbaa !27
  %199 = zext i16 %198 to i32
  %200 = icmp ne i32 %199, 768
  br i1 %200, label %201, label %205

201:                                              ; preds = %196
  %202 = load i32, ptr %13, align 4, !tbaa !9
  %203 = shl i32 %202, 1
  %204 = or i32 %203, 1
  br label %207

205:                                              ; preds = %196
  %206 = load i32, ptr %13, align 4, !tbaa !9
  br label %207

207:                                              ; preds = %205, %201
  %208 = phi i32 [ %204, %201 ], [ %206, %205 ]
  %209 = sub i32 %208, 1
  %210 = sub i32 0, %209
  %211 = load ptr, ptr %11, align 8, !tbaa !30
  %212 = getelementptr inbounds nuw i32, ptr %211, i32 1
  store ptr %212, ptr %11, align 8, !tbaa !30
  store i32 %210, ptr %211, align 4, !tbaa !9
  br label %213

213:                                              ; preds = %207, %191
  %214 = load i32, ptr %9, align 4, !tbaa !9
  %215 = load ptr, ptr %12, align 8, !tbaa !30
  %216 = load ptr, ptr %11, align 8, !tbaa !30
  %217 = ptrtoint ptr %215 to i64
  %218 = ptrtoint ptr %216 to i64
  %219 = sub i64 %217, %218
  %220 = sdiv exact i64 %219, 4
  %221 = trunc i64 %220 to i32
  %222 = sub nsw i32 %214, %221
  store i32 %222, ptr %5, align 4
  store i32 1, ptr %15, align 4
  br label %223

223:                                              ; preds = %213, %177, %112
  call void @llvm.lifetime.end.p0(i64 4, ptr %13) #3
  call void @llvm.lifetime.end.p0(i64 8, ptr %12) #3
  call void @llvm.lifetime.end.p0(i64 8, ptr %11) #3
  call void @llvm.lifetime.end.p0(i64 16, ptr %10) #3
  %224 = load i32, ptr %5, align 4
  ret i32 %224
}