; Function Attrs: nofree norecurse nosync nounwind memory(argmem: readwrite) uwtable
define i32 @ff_dirac_golomb_read_32bit(ptr noundef readonly captures(none) %0, i32 noundef %1, ptr noundef %2, i32 noundef %3) local_unnamed_addr #0 {
  %5 = load i8, ptr %0, align 1, !tbaa !4
  %6 = zext i8 %5 to i64
  %7 = sext i32 %3 to i64
  %8 = getelementptr inbounds i32, ptr %2, i64 %7
  %smax = tail call i32 @llvm.smax.i32(i32 %1, i32 1)
  br label %9

9:                                                ; preds = %32, %4
  %.pn = phi ptr [ %0, %4 ], [ %.0105, %32 ]
  %10 = phi i64 [ %6, %4 ], [ %37, %32 ]
  %.0102 = phi ptr [ %2, %4 ], [ %31, %32 ]
  %.099 = phi i32 [ 0, %4 ], [ %spec.select, %32 ]
  %.098 = phi i32 [ 1, %4 ], [ %38, %32 ]
  %.0105 = getelementptr inbounds nuw i8, ptr %.pn, i64 1
  %.sroa.0.0.in = getelementptr inbounds nuw [1024 x %struct.LUTState], ptr @dirac_golomb_lut, i64 0, i64 %10
  %.sroa.0.0 = load i16, ptr %.sroa.0.0.in, align 16, !tbaa !7
  %.sroa.7.0.in = getelementptr inbounds nuw [1024 x %struct.LUTState], ptr @dirac_golomb_lut, i64 0, i64 %10, i32 1
  %.sroa.7.0 = load i16, ptr %.sroa.7.0.in, align 2, !tbaa !7
  %.sroa.9.0.in = getelementptr inbounds nuw [1024 x %struct.LUTState], ptr @dirac_golomb_lut, i64 0, i64 %10, i32 2
  %.sroa.9.0 = load i16, ptr %.sroa.9.0.in, align 4, !tbaa !7
  %.sroa.11.0.in = getelementptr inbounds nuw [1024 x %struct.LUTState], ptr @dirac_golomb_lut, i64 0, i64 %10, i32 3
  %.sroa.11.0 = load i16, ptr %.sroa.11.0.in, align 2, !tbaa !7
  %.sroa.13.0.in = getelementptr inbounds nuw [1024 x %struct.LUTState], ptr @dirac_golomb_lut, i64 0, i64 %10, i32 4
  %.sroa.13.0 = load i16, ptr %.sroa.13.0.in, align 8, !tbaa !7
  %.sroa.15.0.in = getelementptr inbounds nuw [1024 x %struct.LUTState], ptr @dirac_golomb_lut, i64 0, i64 %10, i32 5
  %.sroa.15.0 = load i8, ptr %.sroa.15.0.in, align 2, !tbaa !4
  %.sroa.17.0.in = getelementptr inbounds nuw [1024 x %struct.LUTState], ptr @dirac_golomb_lut, i64 0, i64 %10, i32 6
  %.sroa.17.0 = load i8, ptr %.sroa.17.0.in, align 1, !tbaa !4
  %.sroa.19.0.in = getelementptr inbounds nuw [1024 x %struct.LUTState], ptr @dirac_golomb_lut, i64 0, i64 %10, i32 7
  %.sroa.19.0 = load i8, ptr %.sroa.19.0.in, align 4, !tbaa !4
  %.sroa.23.0.in = getelementptr inbounds nuw [1024 x %struct.LUTState], ptr @dirac_golomb_lut, i64 0, i64 %10, i32 8
  %.sroa.23.0 = load i8, ptr %.sroa.23.0.in, align 1, !tbaa !4
  %.sroa.25.0.in = getelementptr inbounds nuw [1024 x %struct.LUTState], ptr @dirac_golomb_lut, i64 0, i64 %10, i32 9
  %.sroa.25.0 = load i16, ptr %.sroa.25.0.in, align 2, !tbaa !7
  %exitcond.not = icmp eq i32 %.098, %smax
  %11 = zext nneg i8 %.sroa.15.0 to i32
  %12 = shl i32 %.099, %11
  %13 = sext i16 %.sroa.0.0 to i32
  %14 = or i32 %12, %13
  %15 = add i32 %14, -1
  %16 = sext i8 %.sroa.17.0 to i32
  %17 = mul i32 %15, %16
  store i32 %17, ptr %.0102, align 4, !tbaa !11
  %18 = sext i16 %.sroa.7.0 to i32
  %19 = getelementptr inbounds nuw i8, ptr %.0102, i64 4
  store i32 %18, ptr %19, align 4, !tbaa !11
  %20 = sext i16 %.sroa.9.0 to i32
  %21 = getelementptr inbounds nuw i8, ptr %.0102, i64 8
  store i32 %20, ptr %21, align 4, !tbaa !11
  %22 = sext i16 %.sroa.11.0 to i32
  %23 = getelementptr inbounds nuw i8, ptr %.0102, i64 12
  store i32 %22, ptr %23, align 4, !tbaa !11
  %24 = sext i16 %.sroa.13.0 to i32
  %25 = getelementptr inbounds nuw i8, ptr %.0102, i64 16
  store i32 %24, ptr %25, align 4, !tbaa !11
  %26 = getelementptr inbounds nuw i8, ptr %.0102, i64 20
  store i32 0, ptr %26, align 4, !tbaa !11
  %27 = getelementptr inbounds nuw i8, ptr %.0102, i64 24
  store i32 0, ptr %27, align 4, !tbaa !11
  %28 = getelementptr inbounds nuw i8, ptr %.0102, i64 28
  store i32 0, ptr %28, align 4, !tbaa !11
  br i1 %exitcond.not, label %39, label %29

29:                                               ; preds = %9
  %30 = sext i8 %.sroa.19.0 to i64
  %31 = getelementptr inbounds i32, ptr %.0102, i64 %30
  %.not111 = icmp ult ptr %31, %8
  br i1 %.not111, label %32, label %.thread

32:                                               ; preds = %29
  %.not = icmp eq i8 %.sroa.19.0, 0
  %33 = zext i8 %.sroa.23.0 to i32
  %spec.select = select i1 %.not, i32 %14, i32 %33
  %34 = zext i16 %.sroa.25.0 to i64
  %35 = load i8, ptr %.0105, align 1, !tbaa !4
  %36 = zext i8 %35 to i64
  %37 = add nuw nsw i64 %36, %34
  %38 = add nuw i32 %.098, 1
  br label %9, !llvm.loop !13

39:                                               ; preds = %9
  %.not113 = icmp eq i8 %.sroa.19.0, 0
  %40 = zext i8 %.sroa.23.0 to i32
  %spec.select117 = select i1 %.not113, i32 %14, i32 %40
  %41 = sext i8 %.sroa.19.0 to i64
  %42 = getelementptr inbounds i32, ptr %.0102, i64 %41
  %.not114 = icmp ult ptr %42, %8
  br i1 %.not114, label %43, label %.thread

43:                                               ; preds = %39
  %44 = zext i16 %.sroa.25.0 to i64
  %45 = load i8, ptr %.0105, align 1, !tbaa !4
  %46 = zext i8 %45 to i64
  %47 = add nuw nsw i64 %46, %44
  %.sroa.25.0..sroa_idx83 = getelementptr inbounds nuw [1024 x %struct.LUTState], ptr @dirac_golomb_lut, i64 0, i64 %47, i32 9
  %.sroa.25.0.copyload84 = load i16, ptr %.sroa.25.0..sroa_idx83, align 2, !tbaa !7
  %.not115 = icmp eq i16 %.sroa.25.0.copyload84, 0
  br i1 %.not115, label %54, label %48

48:                                               ; preds = %43
  %.not116 = icmp eq i16 %.sroa.25.0.copyload84, 768
  %49 = shl i32 %spec.select117, 1
  %50 = or disjoint i32 %49, 1
  %51 = select i1 %.not116, i32 %spec.select117, i32 %50
  %52 = sub i32 1, %51
  %53 = getelementptr inbounds nuw i8, ptr %42, i64 4
  store i32 %52, ptr %42, align 4, !tbaa !11
  br label %54

54:                                               ; preds = %48, %43
  %.2104 = phi ptr [ %53, %48 ], [ %42, %43 ]
  %55 = ptrtoint ptr %8 to i64
  %56 = ptrtoint ptr %.2104 to i64
  %57 = sub i64 %55, %56
  %58 = lshr exact i64 %57, 2
  %59 = trunc i64 %58 to i32
  %60 = sub nsw i32 %3, %59
  br label %.thread

.thread:                                          ; preds = %29, %39, %54
  %.1101 = phi i32 [ %60, %54 ], [ %3, %39 ], [ %3, %29 ]
  ret i32 %.1101
}